target datalayout = "e-m:e-p270:32:32-p271:32:32-p272:64:64-i64:64-i128:128-f80:128-n8:16:32:64-S128"
target triple = "x86_64-unknown-linux-gnu"

%"class.icu_75::BMPSet" = type <{ ptr, [256 x i8], i8, [3 x i8], [64 x i32], [64 x i32], [18 x i32], [4 x i8], ptr, i32, [4 x i8] }>

; Function Attrs: mustprogress nounwind uwtable
define noundef i32 @_ZNK6icu_756BMPSet13findCodePointEiii(ptr noundef nonnull align 8 dereferenceable(868) %this, i32 noundef %c, i32 noundef %lo, i32 noundef %hi) #2 align 2 {
entry:
  %retval = alloca i32, align 4
  %this.addr = alloca ptr, align 8
  %c.addr = alloca i32, align 4
  %lo.addr = alloca i32, align 4
  %hi.addr = alloca i32, align 4
  %i = alloca i32, align 4
  store ptr %this, ptr %this.addr, align 8
  store i32 %c, ptr %c.addr, align 4
  store i32 %lo, ptr %lo.addr, align 4
  store i32 %hi, ptr %hi.addr, align 4
  %this1 = load ptr, ptr %this.addr, align 8
  %0 = load i32, ptr %c.addr, align 4
  %list = getelementptr inbounds %"class.icu_75::BMPSet", ptr %this1, i32 0, i32 8
  %1 = load ptr, ptr %list, align 8
  %2 = load i32, ptr %lo.addr, align 4
  %idxprom = sext i32 %2 to i64
  %arrayidx = getelementptr inbounds i32, ptr %1, i64 %idxprom
  %3 = load i32, ptr %arrayidx, align 4
  %cmp = icmp slt i32 %0, %3
  br i1 %cmp, label %if.then, label %if.end

if.then:                                          ; preds = %entry
  %4 = load i32, ptr %lo.addr, align 4
  store i32 %4, ptr %retval, align 4
  br label %return

if.end:                                           ; preds = %entry
  %5 = load i32, ptr %lo.addr, align 4
  %6 = load i32, ptr %hi.addr, align 4
  %cmp2 = icmp sge i32 %5, %6
  br i1 %cmp2, label %if.then7, label %lor.lhs.false

lor.lhs.false:                                    ; preds = %if.end
  %7 = load i32, ptr %c.addr, align 4
  %list3 = getelementptr inbounds %"class.icu_75::BMPSet", ptr %this1, i32 0, i32 8
  %8 = load ptr, ptr %list3, align 8
  %9 = load i32, ptr %hi.addr, align 4
  %sub = sub nsw i32 %9, 1
  %idxprom4 = sext i32 %sub to i64
  %arrayidx5 = getelementptr inbounds i32, ptr %8, i64 %idxprom4
  %10 = load i32, ptr %arrayidx5, align 4
  %cmp6 = icmp sge i32 %7, %10
  br i1 %cmp6, label %if.then7, label %if.end8

if.then7:                                         ; preds = %lor.lhs.false, %if.end
  %11 = load i32, ptr %hi.addr, align 4
  store i32 %11, ptr %retval, align 4
  br label %return

if.end8:                                          ; preds = %lor.lhs.false
  br label %for.cond

for.cond:                                         ; preds = %if.end18, %if.end8
  %12 = load i32, ptr %lo.addr, align 4
  %13 = load i32, ptr %hi.addr, align 4
  %add = add nsw i32 %12, %13
  %shr = ashr i32 %add, 1
  store i32 %shr, ptr %i, align 4
  %14 = load i32, ptr %i, align 4
  %15 = load i32, ptr %lo.addr, align 4
  %cmp9 = icmp eq i32 %14, %15
  br i1 %cmp9, label %if.then10, label %if.else

if.then10:                                        ; preds = %for.cond
  br label %for.end

if.else:                                          ; preds = %for.cond
  %16 = load i32, ptr %c.addr, align 4
  %list11 = getelementptr inbounds %"class.icu_75::BMPSet", ptr %this1, i32 0, i32 8
  %17 = load ptr, ptr %list11, align 8
  %18 = load i32, ptr %i, align 4
  %idxprom12 = sext i32 %18 to i64
  %arrayidx13 = getelementptr inbounds i32, ptr %17, i64 %idxprom12
  %19 = load i32, ptr %arrayidx13, align 4
  %cmp14 = icmp slt i32 %16, %19
  br i1 %cmp14, label %if.then15, label %if.else16

if.then15:                                        ; preds = %if.else
  %20 = load i32, ptr %i, align 4
  store i32 %20, ptr %hi.addr, align 4
  br label %if.end17

if.else16:                                        ; preds = %if.else
  %21 = load i32, ptr %i, align 4
  store i32 %21, ptr %lo.addr, align 4
  br label %if.end17

if.end17:                                         ; preds = %if.else16, %if.then15
  br label %if.end18

if.end18:                                         ; preds = %if.end17
  br label %for.cond, !llvm.loop !6

for.end:                                          ; preds = %if.then10
  %22 = load i32, ptr %hi.addr, align 4
  store i32 %22, ptr %retval, align 4
  br label %return

return:                                           ; preds = %for.end, %if.then7, %if.then
  %23 = load i32, ptr %retval, align 4
  ret i32 %23
}

; Function Attrs: mustprogress nounwind uwtable
define linkonce_odr noundef signext i8 @_ZNK6icu_756BMPSet12containsSlowEiii(ptr noundef nonnull align 8 dereferenceable(868) %this, i32 noundef %c, i32 noundef %lo, i32 noundef %hi) #2 comdat align 2 {
entry:
  %this.addr = alloca ptr, align 8
  %c.addr = alloca i32, align 4
  %lo.addr = alloca i32, align 4
  %hi.addr = alloca i32, align 4
  store ptr %this, ptr %this.addr, align 8
  store i32 %c, ptr %c.addr, align 4
  store i32 %lo, ptr %lo.addr, align 4
  store i32 %hi, ptr %hi.addr, align 4
  %this1 = load ptr, ptr %this.addr, align 8
  %0 = load i32, ptr %c.addr, align 4
  %1 = load i32, ptr %lo.addr, align 4
  %2 = load i32, ptr %hi.addr, align 4
  %call = call noundef i32 @_ZNK6icu_756BMPSet13findCodePointEiii(ptr noundef nonnull align 8 dereferenceable(868) %this1, i32 noundef %0, i32 noundef %1, i32 noundef %2)
  %and = and i32 %call, 1
  %conv = trunc i32 %and to i8
  ret i8 %conv
}

; Function Attrs: mustprogress uwtable
define noundef signext i8 @_ZNK6icu_756BMPSet8containsEi(ptr noundef nonnull align 8 dereferenceable(868) %this, i32 noundef %c) unnamed_addr #0 align 2 {
entry:
  %retval = alloca i8, align 1
  %this.addr = alloca ptr, align 8
  %c.addr = alloca i32, align 4
  %lead = alloca i32, align 4
  %twoBits = alloca i32, align 4
  store ptr %this, ptr %this.addr, align 8
  store i32 %c, ptr %c.addr, align 4
  %this1 = load ptr, ptr %this.addr, align 8
  %0 = load i32, ptr %c.addr, align 4
  %cmp = icmp ule i32 %0, 255
  br i1 %cmp, label %if.then, label %if.else

if.then:                                          ; preds = %entry
  %latin1Contains = getelementptr inbounds %"class.icu_75::BMPSet", ptr %this1, i32 0, i32 1
  %1 = load i32, ptr %c.addr, align 4
  %idxprom = sext i32 %1 to i64
  %arrayidx = getelementptr inbounds [256 x i8], ptr %latin1Contains, i64 0, i64 %idxprom
  %2 = load i8, ptr %arrayidx, align 1
  store i8 %2, ptr %retval, align 1
  br label %return

if.else:                                          ; preds = %entry
  %3 = load i32, ptr %c.addr, align 4
  %cmp2 = icmp ule i32 %3, 2047
  br i1 %cmp2, label %if.then3, label %if.else8

if.then3:                                         ; preds = %if.else
  %table7FF = getelementptr inbounds %"class.icu_75::BMPSet", ptr %this1, i32 0, i32 4
  %4 = load i32, ptr %c.addr, align 4
  %and = and i32 %4, 63
  %idxprom4 = sext i32 %and to i64
  %arrayidx5 = getelementptr inbounds [64 x i32], ptr %table7FF, i64 0, i64 %idxprom4
  %5 = load i32, ptr %arrayidx5, align 4
  %6 = load i32, ptr %c.addr, align 4
  %shr = ashr i32 %6, 6
  %shl = shl i32 1, %shr
  %and6 = and i32 %5, %shl
  %cmp7 = icmp ne i32 %and6, 0
  %conv = zext i1 %cmp7 to i8
  store i8 %conv, ptr %retval, align 1
  br label %return

if.else8:                                         ; preds = %if.else
  %7 = load i32, ptr %c.addr, align 4
  %cmp9 = icmp ult i32 %7, 55296
  br i1 %cmp9, label %if.then12, label %lor.lhs.false

lor.lhs.false:                                    ; preds = %if.else8
  %8 = load i32, ptr %c.addr, align 4
  %cmp10 = icmp sge i32 %8, 57344
  br i1 %cmp10, label %land.lhs.true, label %if.else29

land.lhs.true:                                    ; preds = %lor.lhs.false
  %9 = load i32, ptr %c.addr, align 4
  %cmp11 = icmp sle i32 %9, 65535
  br i1 %cmp11, label %if.then12, label %if.else29

if.then12:                                        ; preds = %land.lhs.true, %if.else8
  %10 = load i32, ptr %c.addr, align 4
  %shr13 = ashr i32 %10, 12
  store i32 %shr13, ptr %lead, align 4
  %bmpBlockBits = getelementptr inbounds %"class.icu_75::BMPSet", ptr %this1, i32 0, i32 5
  %11 = load i32, ptr %c.addr, align 4
  %shr14 = ashr i32 %11, 6
  %and15 = and i32 %shr14, 63
  %idxprom16 = sext i32 %and15 to i64
  %arrayidx17 = getelementptr inbounds [64 x i32], ptr %bmpBlockBits, i64 0, i64 %idxprom16
  %12 = load i32, ptr %arrayidx17, align 4
  %13 = load i32, ptr %lead, align 4
  %shr18 = lshr i32 %12, %13
  %and19 = and i32 %shr18, 65537
  store i32 %and19, ptr %twoBits, align 4
  %14 = load i32, ptr %twoBits, align 4
  %cmp20 = icmp ule i32 %14, 1
  br i1 %cmp20, label %if.then21, label %if.else23

if.then21:                                        ; preds = %if.then12
  %15 = load i32, ptr %twoBits, align 4
  %conv22 = trunc i32 %15 to i8
  store i8 %conv22, ptr %retval, align 1
  br label %return

if.else23:                                        ; preds = %if.then12
  %16 = load i32, ptr %c.addr, align 4
  %list4kStarts = getelementptr inbounds %"class.icu_75::BMPSet", ptr %this1, i32 0, i32 6
  %17 = load i32, ptr %lead, align 4
  %idxprom24 = sext i32 %17 to i64
  %arrayidx25 = getelementptr inbounds [18 x i32], ptr %list4kStarts, i64 0, i64 %idxprom24
  %18 = load i32, ptr %arrayidx25, align 4
  %list4kStarts26 = getelementptr inbounds %"class.icu_75::BMPSet", ptr %this1, i32 0, i32 6
  %19 = load i32, ptr %lead, align 4
  %add = add nsw i32 %19, 1
  %idxprom27 = sext i32 %add to i64
  %arrayidx28 = getelementptr inbounds [18 x i32], ptr %list4kStarts26, i64 0, i64 %idxprom27
  %20 = load i32, ptr %arrayidx28, align 4
  %call = call noundef signext i8 @_ZNK6icu_756BMPSet12containsSlowEiii(ptr noundef nonnull align 8 dereferenceable(868) %this1, i32 noundef %16, i32 noundef %18, i32 noundef %20)
  store i8 %call, ptr %retval, align 1
  br label %return

if.else29:                                        ; preds = %land.lhs.true, %lor.lhs.false
  %21 = load i32, ptr %c.addr, align 4
  %cmp30 = icmp ule i32 %21, 1114111
  br i1 %cmp30, label %if.then31, label %if.else37

if.then31:                                        ; preds = %if.else29
  %22 = load i32, ptr %c.addr, align 4
  %list4kStarts32 = getelementptr inbounds %"class.icu_75::BMPSet", ptr %this1, i32 0, i32 6
  %arrayidx33 = getelementptr inbounds [18 x i32], ptr %list4kStarts32, i64 0, i64 13
  %23 = load i32, ptr %arrayidx33, align 4
  %list4kStarts34 = getelementptr inbounds %"class.icu_75::BMPSet", ptr %this1, i32 0, i32 6
  %arrayidx35 = getelementptr inbounds [18 x i32], ptr %list4kStarts34, i64 0, i64 17
  %24 = load i32, ptr %arrayidx35, align 4
  %call36 = call noundef signext i8 @_ZNK6icu_756BMPSet12containsSlowEiii(ptr noundef nonnull align 8 dereferenceable(868) %this1, i32 noundef %22, i32 noundef %23, i32 noundef %24)
  store i8 %call36, ptr %retval, align 1
  br label %return

if.else37:                                        ; preds = %if.else29
  store i8 0, ptr %retval, align 1
  br label %return

return:                                           ; preds = %if.else37, %if.then31, %if.else23, %if.then21, %if.then3, %if.then
  %25 = load i8, ptr %retval, align 1
  ret i8 %25
}